(ituttle.workflow
Workflow
p0
(dp1
S'_resources'
p2
(dp3
Vfile://characters_count.dat
p4
ccopy_reg
_reconstructor
p5
(ctuttle.resources
FileResource
p6
c__builtin__
object
p7
Ntp8
Rp9
(dp10
S'url'
p11
g4
sS'creator_process'
p12
(ituttle.process
Process
p13
(dp14
S'log_stderr'
p15
S'.tuttle/processes/logs/tuttlefile_5_err.txt'
p16
sS'success'
p17
I01
sS'_outputs'
p18
(lp19
g9
asS'_filename'
p20
S'tuttlefile'
p21
sS'_id'
p22
S'tuttlefile_5'
p23
sS'log_stdout'
p24
S'.tuttle/processes/logs/tuttlefile_5_stdout.txt'
p25
sS'_processor'
p26
(ituttle.extensions.python
PythonProcessor
p27
(dp28
bsS'_code'
p29
Vnames = ["Athos", "Porthos", "Aramis", "d'Artagnan"]\u000awith open('characters_count.dat', 'w') as f_out:\u000a    with open('Les_trois_mousquetaires.txt') as f_in:\u000a        content_low = f_in.read().lower()\u000a    print("{} chars in the novel".format(len(content_low)))\u000a    for name in names:\u000a        name_low = name.lower()\u000a        f_out.write("{}\u005ct{}\u005cn".format(name, content_low.count(name_low)))\u000a        print("{} - done".format(name))\u000a
p30
sS'_end'
p31
F1439306962.595049
sS'_line_num'
p32
I5
sS'_inputs'
p33
(lp34
g5
(g6
g7
Ntp35
Rp36
(dp37
g11
Vfile://Les_trois_mousquetaires.txt
p38
sg12
(ituttle.process
Process
p39
(dp40
g15
S'.tuttle/processes/logs/tuttlefile_1_err.txt'
p41
sg17
I01
sg18
(lp42
g36
asg20
g21
sg22
S'tuttlefile_1'
p43
sg24
S'.tuttle/processes/logs/tuttlefile_1_stdout.txt'
p44
sg26
(ituttle.processors
ShellProcessor
p45
(dp46
bsg29
Vunzip Les_trois_mousquetaires.zip Les_trois_mousquetaires.txt\u000a
p47
sg31
F1439306962.01609
sg32
I1
sg33
(lp48
g5
(g6
g7
Ntp49
Rp50
(dp51
g11
Vfile://Les_trois_mousquetaires.zip
p52
sg12
NsS'_path'
p53
V/media/sf_shared/musketeers/Les_trois_mousquetaires.zip
p54
sbasS'_start'
p55
F1439306961.805367
sbsg53
V/media/sf_shared/musketeers/Les_trois_mousquetaires.txt
p56
sbasg55
F1439306962.190533
sbsg53
V/media/sf_shared/musketeers/characters_count.dat
p57
sbsVfile://characters_count.csv
p58
g5
(g6
g7
Ntp59
Rp60
(dp61
g11
g58
sg12
(ituttle.process
Process
p62
(dp63
g15
S'.tuttle/processes/logs/tuttlefile_18_err.txt'
p64
sg17
I01
sg18
(lp65
g60
asg20
g21
sg22
S'tuttlefile_18'
p66
sg24
S'.tuttle/processes/logs/tuttlefile_18_stdout.txt'
p67
sg26
g45
sg29
Vawk '{print "\u005c""$1"\u005c","$2"\u005cr"}' characters_count.dat > characters_count.csv\u000a
p68
sg31
F1439306962.805264
sg32
I18
sg33
(lp69
g9
asg55
F1439306962.742407
sbsg53
V/media/sf_shared/musketeers/characters_count.csv
p70
sbsg38
g36
sg52
g50
sVfile://characters_count.png
p71
g5
(g6
g7
Ntp72
Rp73
(dp74
g11
g71
sg12
(ituttle.process
Process
p75
(dp76
g15
S'.tuttle/processes/logs/tuttlefile_24_err.txt'
p77
sg17
I01
sg18
(lp78
g73
asg20
g21
sg22
S'tuttlefile_24'
p79
sg24
S'.tuttle/processes/logs/tuttlefile_24_stdout.txt'
p80
sg26
g45
sg29
Vgnuplot <<$script$\u000aset terminal png\u000aset output "characters_count.png"\u000aplot "characters_count.dat" using 2: xtic(1) with histogram\u000a$script$\u000a
p81
sg31
F1439306963.7995
sg32
I24
sg33
(lp82
g9
asg55
F1439306962.945624
sbsg53
V/media/sf_shared/musketeers/characters_count.png
p83
sbssS'_processes'
p84
(lp85
g39
ag13
ag62
ag75
asS'_resources_signatures'
p86
(dp87
g4
S'sha1:75b6ca99c53b6c151e9cd79ec4a6d4eeb7c66ab6'
p88
sg58
S'sha1:61d837e200557de8ea11c4d5a745c5aca4cf54a0'
p89
sg38
S'sha1:bcb47f4f2b104bc8a1bee9e4a274f47fa3bf8c81'
p90
sg52
S'sha1:f01049d489c01d071498d5bd2468fcab88cf3ff8'
p91
sg71
S'sha1:79bf3009505e207ce525b5a50cb41eca01c49a04'
p92
ssb.